; Function Attrs: nofree nounwind uwtable
define range(i32 -1, 1) i32 @h5tools_set_attr_output_file(ptr noundef readonly captures(address_is_null) %0, i32 noundef %1) local_unnamed_addr #4 {
  %3 = load ptr, ptr @rawattrstream, align 8, !tbaa !9
  %.not = icmp eq ptr %3, null
  %4 = load ptr, ptr @stdout, align 8
  %.not10 = icmp eq ptr %3, %4
  %or.cond = select i1 %.not, i1 true, i1 %.not10
  br i1 %or.cond, label %9, label %5

5:                                                ; preds = %2
  %6 = tail call i32 @fclose(ptr noundef nonnull %3)
  %.not11 = icmp eq i32 %6, 0
  br i1 %.not11, label %8, label %7

7:                                                ; preds = %5
  tail call void @perror(ptr noundef nonnull @.str.32) #17
  br label %9

8:                                                ; preds = %5
  store ptr null, ptr @rawattrstream, align 8, !tbaa !9
  br label %9

9:                                                ; preds = %7, %8, %2
  %.not12 = icmp eq ptr %0, null
  br i1 %.not12, label %.sink.split, label %10

10:                                               ; preds = %9
  %.not13 = icmp eq i32 %1, 0
  br i1 %.not13, label %13, label %11

11:                                               ; preds = %10
  %12 = tail call noalias ptr @fopen64(ptr noundef nonnull %0, ptr noundef nonnull @.str.43)
  %.not15 = icmp eq ptr %12, null
  br i1 %.not15, label %15, label %.sink.split

13:                                               ; preds = %10
  %14 = tail call noalias ptr @fopen64(ptr noundef nonnull %0, ptr noundef nonnull @.str.44)
  %.not14 = icmp eq ptr %14, null
  br i1 %.not14, label %15, label %.sink.split

.sink.split:                                      ; preds = %9, %13, %11
  %.sink = phi ptr [ %12, %11 ], [ %14, %13 ], [ null, %9 ]
  store ptr %.sink, ptr @rawattrstream, align 8, !tbaa !9
  br label %15

15:                                               ; preds = %.sink.split, %11, %13
  %.0 = phi i32 [ -1, %11 ], [ -1, %13 ], [ 0, %.sink.split ]
  ret i32 %.0
}